; Function Attrs: nounwind uwtable
define i32 @nghttp2_submit_headers(ptr noundef %0, i8 noundef zeroext %1, i32 noundef %2, ptr noundef readnone captures(none) %3, ptr noundef %4, i64 noundef %5, ptr noundef %6) local_unnamed_addr #0 {
  %8 = icmp eq i32 %2, -1
  br i1 %8, label %9, label %12

9:                                                ; preds = %7
  %10 = getelementptr inbounds nuw i8, ptr %0, i64 2675
  %11 = load i8, ptr %10, align 1, !tbaa !39
  %.not = icmp eq i8 %11, 0
  br i1 %.not, label %.sink.split, label %16

12:                                               ; preds = %7
  %13 = icmp slt i32 %2, 1
  br i1 %13, label %16, label %.sink.split

.sink.split:                                      ; preds = %12, %9
  %.sink12 = phi i32 [ -1, %9 ], [ %2, %12 ]
  %14 = and i8 %1, 1
  %15 = tail call fastcc i32 @submit_headers_shared_nva(ptr noundef %0, i8 noundef zeroext %14, i32 noundef %.sink12, ptr noundef %4, i64 noundef %5, ptr noundef null, ptr noundef %6)
  br label %16

16:                                               ; preds = %.sink.split, %12, %9
  %.0 = phi i32 [ -505, %9 ], [ -501, %12 ], [ %15, %.sink.split ]
  ret i32 %.0
}